; Function Attrs: mustprogress uwtable
define internal void @_ZN12_GLOBAL__N_146HyperscanArgChecks_CompressStreamNoStream_Test8TestBodyEv(ptr nonnull readnone align 8 captures(none) %0) unnamed_addr #7 align 2 personality ptr @__gxx_personality_v0 {
  %2 = alloca [100 x i8], align 16
  %3 = alloca i64, align 8
  %4 = alloca i32, align 4
  %5 = alloca %"class.testing::AssertionResult", align 8
  %6 = alloca i32, align 4
  %7 = alloca %"class.testing::Message", align 8
  %8 = alloca %"class.testing::internal::AssertHelper", align 8
  call void @llvm.lifetime.start.p0(i64 100, ptr nonnull %2) #27
  call void @llvm.lifetime.start.p0(i64 8, ptr nonnull %3) #27
  call void @llvm.lifetime.start.p0(i64 4, ptr nonnull %4) #27
  %9 = call i32 @hs_compress_stream(ptr noundef null, ptr noundef nonnull %2, i64 noundef 100, ptr noundef nonnull %3)
  store i32 %9, ptr %4, align 4
  call void @llvm.lifetime.start.p0(i64 16, ptr nonnull %5) #27
  call void @llvm.lifetime.start.p0(i64 4, ptr nonnull %6) #27
  store i32 -1, ptr %6, align 4
  call void @_ZN7testing8internal11CmpHelperEQIiiEENS_15AssertionResultEPKcS4_RKT_RKT0_(ptr dead_on_unwind nonnull writable sret(%"class.testing::AssertionResult") align 8 %5, ptr noundef nonnull @.str.324, ptr noundef nonnull @.str.302, ptr noundef nonnull align 4 dereferenceable(4) %6, ptr noundef nonnull align 4 dereferenceable(4) %4)
  call void @llvm.lifetime.end.p0(i64 4, ptr nonnull %6) #27
  %10 = load i8, ptr %5, align 8, !range !14, !noundef !15
  %11 = trunc nuw i8 %10 to i1
  br i1 %11, label %42, label %12

12:                                               ; preds = %1
  call void @llvm.lifetime.start.p0(i64 8, ptr nonnull %7) #27
  invoke void @_ZN7testing7MessageC1Ev(ptr noundef nonnull align 8 dereferenceable(8) %7)
          to label %13 unwind label %34

13:                                               ; preds = %12
  call void @llvm.lifetime.start.p0(i64 8, ptr nonnull %8) #27
  %14 = getelementptr inbounds nuw i8, ptr %5, i64 8
  %15 = load ptr, ptr %14, align 8
  %.not.i.i = icmp eq ptr %15, null
  br i1 %.not.i.i, label %_ZNK7testing15AssertionResult15failure_messageEv.exit, label %16

16:                                               ; preds = %13
  %17 = load ptr, ptr %15, align 8
  br label %_ZNK7testing15AssertionResult15failure_messageEv.exit

_ZNK7testing15AssertionResult15failure_messageEv.exit: ; preds = %16, %13
  %18 = phi ptr [ %17, %16 ], [ @.str.292, %13 ]
  invoke void @_ZN7testing8internal12AssertHelperC1ENS_14TestPartResult4TypeEPKciS5_(ptr noundef nonnull align 8 dereferenceable(8) %8, i32 noundef 2, ptr noundef nonnull @.str.286, i32 noundef 2333, ptr noundef %18)
          to label %19 unwind label %36

19:                                               ; preds = %_ZNK7testing15AssertionResult15failure_messageEv.exit
  invoke void @_ZNK7testing8internal12AssertHelperaSERKNS_7MessageE(ptr noundef nonnull align 8 dereferenceable(8) %8, ptr noundef nonnull align 8 dereferenceable(8) %7)
          to label %20 unwind label %38

20:                                               ; preds = %19
  call void @_ZN7testing8internal12AssertHelperD1Ev(ptr noundef nonnull align 8 dereferenceable(8) %8) #27
  call void @llvm.lifetime.end.p0(i64 8, ptr nonnull %8) #27
  %21 = load ptr, ptr %7, align 8
  %.not.i.i.i = icmp eq ptr %21, null
  br i1 %.not.i.i.i, label %_ZN7testing7MessageD2Ev.exit, label %22

22:                                               ; preds = %20
  %23 = invoke noundef zeroext i1 @_ZN7testing8internal6IsTrueEb(i1 noundef zeroext true)
          to label %.noexc.i.i unwind label %31

.noexc.i.i:                                       ; preds = %22
  br i1 %23, label %24, label %_ZN7testing7MessageD2Ev.exit

24:                                               ; preds = %.noexc.i.i
  %25 = load ptr, ptr %7, align 8
  %26 = icmp eq ptr %25, null
  br i1 %26, label %_ZN7testing7MessageD2Ev.exit, label %27

27:                                               ; preds = %24
  %28 = load ptr, ptr %25, align 8
  %29 = getelementptr inbounds nuw i8, ptr %28, i64 8
  %30 = load ptr, ptr %29, align 8
  call void %30(ptr noundef nonnull align 8 dereferenceable(128) %25) #27
  br label %_ZN7testing7MessageD2Ev.exit

31:                                               ; preds = %22
  %32 = landingpad { ptr, i32 }
          catch ptr null
  %33 = extractvalue { ptr, i32 } %32, 0
  call void @__clang_call_terminate(ptr %33) #28
  unreachable

_ZN7testing7MessageD2Ev.exit:                     ; preds = %.noexc.i.i, %24, %27, %20
  call void @llvm.lifetime.end.p0(i64 8, ptr nonnull %7) #27
  br label %42

34:                                               ; preds = %12
  %35 = landingpad { ptr, i32 }
          cleanup
  br label %41

36:                                               ; preds = %_ZNK7testing15AssertionResult15failure_messageEv.exit
  %37 = landingpad { ptr, i32 }
          cleanup
  br label %40

38:                                               ; preds = %19
  %39 = landingpad { ptr, i32 }
          cleanup
  call void @_ZN7testing8internal12AssertHelperD1Ev(ptr noundef nonnull align 8 dereferenceable(8) %8) #27
  br label %40

40:                                               ; preds = %38, %36
  %.pn = phi { ptr, i32 } [ %39, %38 ], [ %37, %36 ]
  call void @llvm.lifetime.end.p0(i64 8, ptr nonnull %8) #27
  call void @_ZN7testing7MessageD2Ev(ptr noundef nonnull align 8 dereferenceable(8) %7) #27
  br label %41

41:                                               ; preds = %40, %34
  %.pn.pn = phi { ptr, i32 } [ %.pn, %40 ], [ %35, %34 ]
  call void @llvm.lifetime.end.p0(i64 8, ptr nonnull %7) #27
  call void @_ZN7testing15AssertionResultD2Ev(ptr noundef nonnull align 8 dereferenceable(16) %5) #27
  call void @llvm.lifetime.end.p0(i64 16, ptr nonnull %5) #27
  call void @llvm.lifetime.end.p0(i64 4, ptr nonnull %4) #27
  call void @llvm.lifetime.end.p0(i64 8, ptr nonnull %3) #27
  call void @llvm.lifetime.end.p0(i64 100, ptr nonnull %2) #27
  resume { ptr, i32 } %.pn.pn

42:                                               ; preds = %1, %_ZN7testing7MessageD2Ev.exit
  %43 = getelementptr inbounds nuw i8, ptr %5, i64 8
  %44 = load ptr, ptr %43, align 8
  %.not.i.i.i7 = icmp eq ptr %44, null
  br i1 %.not.i.i.i7, label %_ZN7testing15AssertionResultD2Ev.exit, label %45

45:                                               ; preds = %42
  %46 = invoke noundef zeroext i1 @_ZN7testing8internal6IsTrueEb(i1 noundef zeroext true)
          to label %.noexc.i.i8 unwind label %57

.noexc.i.i8:                                      ; preds = %45
  br i1 %46, label %47, label %_ZN7testing15AssertionResultD2Ev.exit

47:                                               ; preds = %.noexc.i.i8
  %48 = load ptr, ptr %43, align 8
  %49 = icmp eq ptr %48, null
  br i1 %49, label %_ZN7testing15AssertionResultD2Ev.exit, label %50

50:                                               ; preds = %47
  %51 = load ptr, ptr %48, align 8
  %52 = getelementptr inbounds nuw i8, ptr %48, i64 16
  %53 = icmp eq ptr %51, %52
  br i1 %53, label %_ZNKSt7__cxx1112basic_stringIcSt11char_traitsIcESaIcEE11_M_is_localEv.exit.thread.i.i.i.i.i, label %_ZNKSt7__cxx1112basic_stringIcSt11char_traitsIcESaIcEE11_M_is_localEv.exit.i.i.i.i.i

_ZNKSt7__cxx1112basic_stringIcSt11char_traitsIcESaIcEE11_M_is_localEv.exit.thread.i.i.i.i.i: ; preds = %50
  %54 = getelementptr inbounds nuw i8, ptr %48, i64 8
  %55 = load i64, ptr %54, align 8
  %56 = icmp ult i64 %55, 16
  call void @llvm.assume(i1 %56)
  br label %_ZNSt7__cxx1112basic_stringIcSt11char_traitsIcESaIcEED2Ev.exit.i.i.i

_ZNKSt7__cxx1112basic_stringIcSt11char_traitsIcESaIcEE11_M_is_localEv.exit.i.i.i.i.i: ; preds = %50
  call void @_ZdlPv(ptr noundef %51) #31
  br label %_ZNSt7__cxx1112basic_stringIcSt11char_traitsIcESaIcEED2Ev.exit.i.i.i

_ZNSt7__cxx1112basic_stringIcSt11char_traitsIcESaIcEED2Ev.exit.i.i.i: ; preds = %_ZNKSt7__cxx1112basic_stringIcSt11char_traitsIcESaIcEE11_M_is_localEv.exit.i.i.i.i.i, %_ZNKSt7__cxx1112basic_stringIcSt11char_traitsIcESaIcEE11_M_is_localEv.exit.thread.i.i.i.i.i
  call void @_ZdlPv(ptr noundef nonnull %48) #31
  br label %_ZN7testing15AssertionResultD2Ev.exit

57:                                               ; preds = %45
  %58 = landingpad { ptr, i32 }
          catch ptr null
  %59 = extractvalue { ptr, i32 } %58, 0
  call void @__clang_call_terminate(ptr %59) #28
  unreachable

_ZN7testing15AssertionResultD2Ev.exit:            ; preds = %.noexc.i.i8, %47, %_ZNSt7__cxx1112basic_stringIcSt11char_traitsIcESaIcEED2Ev.exit.i.i.i, %42
  call void @llvm.lifetime.end.p0(i64 16, ptr nonnull %5) #27
  call void @llvm.lifetime.end.p0(i64 4, ptr nonnull %4) #27
  call void @llvm.lifetime.end.p0(i64 8, ptr nonnull %3) #27
  call void @llvm.lifetime.end.p0(i64 100, ptr nonnull %2) #27
  ret void
}